target datalayout = "e-m:e-p270:32:32-p271:32:32-p272:64:64-i64:64-i128:128-f80:128-n8:16:32:64-S128"
target triple = "x86_64-pc-linux-gnu"

%"class.std::error_code" = type { i32, ptr }
%"class.llvm::sampleprof::FunctionId" = type { ptr, i64 }
%"class.llvm::sampleprof::SampleContext" = type { %"class.llvm::sampleprof::FunctionId", %"class.llvm::ArrayRef", i32, i32 }
%"class.llvm::ArrayRef" = type { ptr, i64 }

; Function Attrs: mustprogress nounwind uwtable
define linkonce_odr hidden { ptr, i64 } @_ZNK4llvm10sampleprof13SampleContext11getFunctionEv(ptr noundef nonnull align 8 dereferenceable(40) %0) #3 comdat align 2 {
  %2 = alloca %"class.llvm::sampleprof::FunctionId", align 8
  %3 = alloca ptr, align 8
  store ptr %0, ptr %3, align 8
  %4 = load ptr, ptr %3, align 8
  %5 = getelementptr inbounds nuw %"class.llvm::sampleprof::SampleContext", ptr %4, i32 0, i32 0
  call void @llvm.memcpy.p0.p0.i64(ptr align 8 %2, ptr align 8 %5, i64 16, i1 false)
  %6 = load { ptr, i64 }, ptr %2, align 8
  ret { ptr, i64 } %6
}

; Function Attrs: mustprogress nounwind uwtable
define linkonce_odr hidden noundef zeroext i1 @_ZNK4llvm10sampleprof13SampleContext10hasContextEv(ptr noundef nonnull align 8 dereferenceable(40) %0) #3 comdat align 2 {
  %2 = alloca ptr, align 8
  store ptr %0, ptr %2, align 8
  %3 = load ptr, ptr %2, align 8
  %4 = getelementptr inbounds nuw %"class.llvm::sampleprof::SampleContext", ptr %3, i32 0, i32 2
  %5 = load i32, ptr %4, align 8
  %6 = icmp ne i32 %5, 0
  ret i1 %6
}

; Function Attrs: mustprogress nounwind uwtable
define dso_local { i32, ptr } @_ZN4llvm10sampleprof32SampleProfileWriterExtBinaryBase15writeContextIdxERKNS0_13SampleContextE(ptr noundef nonnull align 8 dereferenceable(576) %0, ptr noundef nonnull align 8 dereferenceable(40) %1) unnamed_addr #3 align 2 {
  %3 = alloca %"class.std::error_code", align 8
  %4 = alloca ptr, align 8
  %5 = alloca ptr, align 8
  %6 = alloca %"class.llvm::sampleprof::FunctionId", align 8
  store ptr %0, ptr %4, align 8
  store ptr %1, ptr %5, align 8
  %7 = load ptr, ptr %4, align 8
  %8 = load ptr, ptr %5, align 8
  %9 = call noundef zeroext i1 @_ZNK4llvm10sampleprof13SampleContext10hasContextEv(ptr noundef nonnull align 8 dereferenceable(40) %8)
  br i1 %9, label %10, label %17

10:                                               ; preds = %2
  %11 = load ptr, ptr %5, align 8
  %12 = call { i32, ptr } @_ZN4llvm10sampleprof32SampleProfileWriterExtBinaryBase14writeCSNameIdxERKNS0_13SampleContextE(ptr noundef nonnull align 8 dereferenceable(576) %7, ptr noundef nonnull align 8 dereferenceable(40) %11)
  %13 = getelementptr inbounds nuw { i32, ptr }, ptr %3, i32 0, i32 0
  %14 = extractvalue { i32, ptr } %12, 0
  store i32 %14, ptr %13, align 8
  %15 = getelementptr inbounds nuw { i32, ptr }, ptr %3, i32 0, i32 1
  %16 = extractvalue { i32, ptr } %12, 1
  store ptr %16, ptr %15, align 8
  br label %33

17:                                               ; preds = %2
  %18 = load ptr, ptr %5, align 8
  %19 = call { ptr, i64 } @_ZNK4llvm10sampleprof13SampleContext11getFunctionEv(ptr noundef nonnull align 8 dereferenceable(40) %18)
  %20 = getelementptr inbounds nuw { ptr, i64 }, ptr %6, i32 0, i32 0
  %21 = extractvalue { ptr, i64 } %19, 0
  store ptr %21, ptr %20, align 8
  %22 = getelementptr inbounds nuw { ptr, i64 }, ptr %6, i32 0, i32 1
  %23 = extractvalue { ptr, i64 } %19, 1
  store i64 %23, ptr %22, align 8
  %24 = getelementptr inbounds nuw { ptr, i64 }, ptr %6, i32 0, i32 0
  %25 = load ptr, ptr %24, align 8
  %26 = getelementptr inbounds nuw { ptr, i64 }, ptr %6, i32 0, i32 1
  %27 = load i64, ptr %26, align 8
  %28 = call { i32, ptr } @_ZN4llvm10sampleprof25SampleProfileWriterBinary12writeNameIdxENS0_10FunctionIdE(ptr noundef nonnull align 8 dereferenceable(80) %7, ptr %25, i64 %27)
  %29 = getelementptr inbounds nuw { i32, ptr }, ptr %3, i32 0, i32 0
  %30 = extractvalue { i32, ptr } %28, 0
  store i32 %30, ptr %29, align 8
  %31 = getelementptr inbounds nuw { i32, ptr }, ptr %3, i32 0, i32 1
  %32 = extractvalue { i32, ptr } %28, 1
  store ptr %32, ptr %31, align 8
  br label %33

33:                                               ; preds = %17, %10
  %34 = load { i32, ptr }, ptr %3, align 8
  ret { i32, ptr } %34
}