; Function Attrs: mustprogress nounwind uwtable
define dso_local { i32, ptr } @_ZN4llvm10sampleprof32SampleProfileWriterExtBinaryBase15writeContextIdxERKNS0_13SampleContextE(ptr noundef nonnull align 8 dereferenceable(576) %0, ptr noundef nonnull align 8 dereferenceable(40) %1) unnamed_addr #2 align 2 {
  %3 = getelementptr inbounds nuw i8, ptr %1, i64 32
  %4 = load i32, ptr %3, align 8
  %.not = icmp eq i32 %4, 0
  br i1 %.not, label %7, label %5

5:                                                ; preds = %2
  %6 = tail call { i32, ptr } @_ZN4llvm10sampleprof32SampleProfileWriterExtBinaryBase14writeCSNameIdxERKNS0_13SampleContextE(ptr noundef nonnull align 8 dereferenceable(576) %0, ptr noundef nonnull align 8 dereferenceable(40) %1)
  br label %9

7:                                                ; preds = %2
  %.sroa.0.0.copyload.i = load ptr, ptr %1, align 8
  %.sroa.2.0..sroa_idx.i = getelementptr inbounds i8, ptr %1, i64 8
  %.sroa.2.0.copyload.i = load i64, ptr %.sroa.2.0..sroa_idx.i, align 8
  %8 = tail call { i32, ptr } @_ZN4llvm10sampleprof25SampleProfileWriterBinary12writeNameIdxENS0_10FunctionIdE(ptr noundef nonnull align 8 dereferenceable(80) %0, ptr %.sroa.0.0.copyload.i, i64 %.sroa.2.0.copyload.i)
  br label %9

9:                                                ; preds = %7, %5
  %.pn = phi { i32, ptr } [ %6, %5 ], [ %8, %7 ]
  ret { i32, ptr } %.pn
}